# Errors

{
   <insert_a_suppression_name_here>
   Memcheck:Cond
   fun:_ZN6option6Parser9workhorseEbPKNS_10DescriptorEiPPKcRNS0_6ActionEbbi
   fun:_ZN6option6Parser5parseEbPKNS_10DescriptorEiPPKcPNS_6OptionES8_ibi
   fun:_ZN6option6ParserC1EPKNS_10DescriptorEiPPcPNS_6OptionES7_ibi
   fun:_ZN6bandit6detail7optionsC1EiPPc
   fun:_ZN6bandit3runEiPPc
   fun:main
}

{
   <insert_a_suppression_name_here>
   Memcheck:Cond
   fun:_ZN6option6Parser9workhorseEbPKNS_10DescriptorEiPPKcRNS0_6ActionEbbi
   fun:_ZN6option5Stats3addEbPKNS_10DescriptorEiPPKcib
   fun:_ZN6option5StatsC1EPKNS_10DescriptorEiPPcib
   fun:_ZN6bandit6detail7optionsC1EiPPc
   fun:_ZN6bandit3runEiPPc
   fun:main
}

{
   <insert_a_suppression_name_here>
   Memcheck:Cond
   fun:_ZN6option6Parser9workhorseEbPKNS_10DescriptorEiPPKcRNS0_6ActionEbbi
   fun:_ZN6bandit6detail7optionsC2EiPPc
   fun:_ZN6bandit3runEiPPc
   fun:main
}

{
   <insert_a_suppression_name_here>
   Memcheck:Value8
   fun:_platform_memcmp
   fun:_ZNKSt3__112basic_stringIcNS_11char_traitsIcEENS_9allocatorIcEEE7compareEmmPKcm
   fun:_ZNKSt3__112basic_stringIcNS_11char_traitsIcEENS_9allocatorIcEEE7compareEPKc
   fun:_ZN9snowhouse6Assert4ThatIPKcNS_16EqualsConstraintINSt3__112basic_stringIcNS5_11char_traitsIcEENS5_9allocatorIcEEEEEEEEvRKT_RKT0_S3_i
   fun:_ZNSt3__110__function6__funcIZZZZNK3$_0clEvENKUlvE_clEvENKUlNS_12basic_stringIcNS_11char_traitsIcEENS_9allocatorIcEEEE9ts_parserE_clES9_SA_ENKUlvE_clEvEUlvE0_NS7_ISD_EEFvvEEclEv
   fun:_ZNSt3__110__function6__funcIZN6bandit2itEPKcNS_8functionIFvvEEERNS2_6detail8listenerERNS_5dequeIPNS8_7contextENS_9allocatorISD_EEEERNS2_8adapters17assertion_adapterERKNS8_10run_policyEEUlvE1_NSE_ISO_EES6_EclEv
   fun:_ZN6bandit8adapters17snowhouse_adapter16adapt_exceptionsENSt3__18functionIFvvEEE
   fun:_ZN6bandit2itEPKcNSt3__18functionIFvvEEERNS_6detail8listenerERNS2_5dequeIPNS6_7contextENS2_9allocatorISB_EEEERNS_8adapters17assertion_adapterERKNS6_10run_policyE
   fun:_ZN6bandit2itEPKcNSt3__18functionIFvvEEE
   fun:_ZNSt3__110__function6__funcIZZZNK3$_0clEvENKUlvE_clEvENKUlNS_12basic_stringIcNS_11char_traitsIcEENS_9allocatorIcEEEE9ts_parserE_clES9_SA_EUlvE_NS7_ISC_EEFvvEEclEv
   fun:_ZN6bandit8describeEPKcNSt3__18functionIFvvEEERNS_6detail8listenerERNS2_5dequeIPNS6_7contextENS2_9allocatorISB_EEEEb
   fun:_ZN6bandit8describeEPKcNSt3__18functionIFvvEEE
}

{
   <insert_a_suppression_name_here>
   Memcheck:Addr1
   fun:_platform_memcmp
   fun:_ZNKSt3__112basic_stringIcNS_11char_traitsIcEENS_9allocatorIcEEE7compareEmmPKcm
   fun:_ZNKSt3__112basic_stringIcNS_11char_traitsIcEENS_9allocatorIcEEE7compareEPKc
   fun:_ZN9snowhouse6Assert4ThatIPKcNS_16EqualsConstraintINSt3__112basic_stringIcNS5_11char_traitsIcEENS5_9allocatorIcEEEEEEEEvRKT_RKT0_S3_i
   fun:_ZNSt3__110__function6__funcIZZZZNK3$_0clEvENKUlvE_clEvENKUlNS_12basic_stringIcNS_11char_traitsIcEENS_9allocatorIcEEEE9ts_parserE_clES9_SA_ENKUlvE_clEvEUlvE0_NS7_ISD_EEFvvEEclEv
   fun:_ZNSt3__110__function6__funcIZN6bandit2itEPKcNS_8functionIFvvEEERNS2_6detail8listenerERNS_5dequeIPNS8_7contextENS_9allocatorISD_EEEERNS2_8adapters17assertion_adapterERKNS8_10run_policyEEUlvE1_NSE_ISO_EES6_EclEv
   fun:_ZN6bandit8adapters17snowhouse_adapter16adapt_exceptionsENSt3__18functionIFvvEEE
   fun:_ZN6bandit2itEPKcNSt3__18functionIFvvEEERNS_6detail8listenerERNS2_5dequeIPNS6_7contextENS2_9allocatorISB_EEEERNS_8adapters17assertion_adapterERKNS6_10run_policyE
   fun:_ZN6bandit2itEPKcNSt3__18functionIFvvEEE
   fun:_ZNSt3__110__function6__funcIZZZNK3$_0clEvENKUlvE_clEvENKUlNS_12basic_stringIcNS_11char_traitsIcEENS_9allocatorIcEEEE9ts_parserE_clES9_SA_EUlvE_NS7_ISC_EEFvvEEclEv
   fun:_ZN6bandit8describeEPKcNSt3__18functionIFvvEEERNS_6detail8listenerERNS2_5dequeIPNS6_7contextENS2_9allocatorISB_EEEEb
   fun:_ZN6bandit8describeEPKcNSt3__18functionIFvvEEE
}

{
   <insert_a_suppression_name_here>
   Memcheck:Cond
   fun:_ZNKSt3__112basic_stringIcNS_11char_traitsIcEENS_9allocatorIcEEE7compareEmmPKcm
   fun:_ZNKSt3__112basic_stringIcNS_11char_traitsIcEENS_9allocatorIcEEE7compareEPKc
   fun:_ZN9snowhouse6Assert4ThatIPKcNS_16EqualsConstraintINSt3__112basic_stringIcNS5_11char_traitsIcEENS5_9allocatorIcEEEEEEEEvRKT_RKT0_S3_i
   fun:_ZNSt3__110__function6__funcIZZZZNK3$_0clEvENKUlvE_clEvENKUlNS_12basic_stringIcNS_11char_traitsIcEENS_9allocatorIcEEEE9ts_parserE_clES9_SA_ENKUlvE_clEvEUlvE0_NS7_ISD_EEFvvEEclEv
   fun:_ZNSt3__110__function6__funcIZN6bandit2itEPKcNS_8functionIFvvEEERNS2_6detail8listenerERNS_5dequeIPNS8_7contextENS_9allocatorISD_EEEERNS2_8adapters17assertion_adapterERKNS8_10run_policyEEUlvE1_NSE_ISO_EES6_EclEv
   fun:_ZN6bandit8adapters17snowhouse_adapter16adapt_exceptionsENSt3__18functionIFvvEEE
   fun:_ZN6bandit2itEPKcNSt3__18functionIFvvEEERNS_6detail8listenerERNS2_5dequeIPNS6_7contextENS2_9allocatorISB_EEEERNS_8adapters17assertion_adapterERKNS6_10run_policyE
   fun:_ZN6bandit2itEPKcNSt3__18functionIFvvEEE
   fun:_ZNSt3__110__function6__funcIZZZNK3$_0clEvENKUlvE_clEvENKUlNS_12basic_stringIcNS_11char_traitsIcEENS_9allocatorIcEEEE9ts_parserE_clES9_SA_EUlvE_NS7_ISC_EEFvvEEclEv
   fun:_ZN6bandit8describeEPKcNSt3__18functionIFvvEEERNS_6detail8listenerERNS2_5dequeIPNS6_7contextENS2_9allocatorISB_EEEEb
   fun:_ZN6bandit8describeEPKcNSt3__18functionIFvvEEE
   fun:_ZNSt3__110__function6__funcIZNK3$_0clEvEUlvE_NS_9allocatorIS3_EEFvvEEclEv
}

{
   <insert_a_suppression_name_here>
   Memcheck:Cond
   fun:_ZN9snowhouse6Assert4ThatINSt3__112basic_stringIcNS2_11char_traitsIcEENS2_9allocatorIcEEEENS_16EqualsConstraintIS8_EEEEvRKT_RKT0_PKci
   fun:_ZNSt3__110__function6__funcIZZZNK3$_0clEvENKUlvE_clEvENKUlvE3_clEvEUlvE0_NS_9allocatorIS5_EEFvvEEclEv
   fun:_ZNSt3__110__function6__funcIZN6bandit2itEPKcNS_8functionIFvvEEERNS2_6detail8listenerERNS_5dequeIPNS8_7contextENS_9allocatorISD_EEEERNS2_8adapters17assertion_adapterERKNS8_10run_policyEEUlvE1_NSE_ISO_EES6_EclEv
   fun:_ZN6bandit8adapters17snowhouse_adapter16adapt_exceptionsENSt3__18functionIFvvEEE
   fun:_ZN6bandit2itEPKcNSt3__18functionIFvvEEERNS_6detail8listenerERNS2_5dequeIPNS6_7contextENS2_9allocatorISB_EEEERNS_8adapters17assertion_adapterERKNS6_10run_policyE
   fun:_ZN6bandit2itEPKcNSt3__18functionIFvvEEE
   fun:_ZNSt3__110__function6__funcIZZNK3$_0clEvENKUlvE_clEvEUlvE3_NS_9allocatorIS4_EEFvvEEclEv
   fun:_ZN6bandit8describeEPKcNSt3__18functionIFvvEEERNS_6detail8listenerERNS2_5dequeIPNS6_7contextENS2_9allocatorISB_EEEEb
   fun:_ZN6bandit8describeEPKcNSt3__18functionIFvvEEE
   fun:_ZNSt3__110__function6__funcIZNK3$_0clEvEUlvE_NS_9allocatorIS3_EEFvvEEclEv
   fun:_ZN6bandit8describeEPKcNSt3__18functionIFvvEEERNS_6detail8listenerERNS2_5dequeIPNS6_7contextENS2_9allocatorISB_EEEEb
   fun:_ZN6bandit8describeEPKcNSt3__18functionIFvvEEE
}

{
   <insert_a_suppression_name_here>
   Memcheck:Value8
   fun:_platform_memcmp
   fun:_ZNK9snowhouse16EqualsConstraintINSt3__112basic_stringIcNS1_11char_traitsIcEENS1_9allocatorIcEEEEEclIS7_EEbRKT_
   fun:_ZN9snowhouse6Assert4ThatINSt3__112basic_stringIcNS2_11char_traitsIcEENS2_9allocatorIcEEEENS_16EqualsConstraintIS8_EEEEvRKT_RKT0_PKci
   fun:_ZNSt3__110__function6__funcIZZZNK3$_0clEvENKUlvE_clEvENKUlvE3_clEvEUlvE0_NS_9allocatorIS5_EEFvvEEclEv
   fun:_ZNSt3__110__function6__funcIZN6bandit2itEPKcNS_8functionIFvvEEERNS2_6detail8listenerERNS_5dequeIPNS8_7contextENS_9allocatorISD_EEEERNS2_8adapters17assertion_adapterERKNS8_10run_policyEEUlvE1_NSE_ISO_EES6_EclEv
   fun:_ZN6bandit8adapters17snowhouse_adapter16adapt_exceptionsENSt3__18functionIFvvEEE
   fun:_ZN6bandit2itEPKcNSt3__18functionIFvvEEERNS_6detail8listenerERNS2_5dequeIPNS6_7contextENS2_9allocatorISB_EEEERNS_8adapters17assertion_adapterERKNS6_10run_policyE
   fun:_ZN6bandit2itEPKcNSt3__18functionIFvvEEE
   fun:_ZNSt3__110__function6__funcIZZNK3$_0clEvENKUlvE_clEvEUlvE3_NS_9allocatorIS4_EEFvvEEclEv
   fun:_ZN6bandit8describeEPKcNSt3__18functionIFvvEEERNS_6detail8listenerERNS2_5dequeIPNS6_7contextENS2_9allocatorISB_EEEEb
   fun:_ZN6bandit8describeEPKcNSt3__18functionIFvvEEE
   fun:_ZNSt3__110__function6__funcIZNK3$_0clEvEUlvE_NS_9allocatorIS3_EEFvvEEclEv
}

{
   <insert_a_suppression_name_here>
   Memcheck:Cond
   fun:_ZN9snowhouse6Assert4ThatINSt3__112basic_stringIcNS2_11char_traitsIcEENS2_9allocatorIcEEEENS_16EqualsConstraintIS8_EEEEvRKT_RKT0_PKci
   fun:_ZNSt3__110__function6__funcIZZNK3$_0clEvENKUlvE_clEvEUlvE1_NS_9allocatorIS4_EEFvvEEclEv
   fun:_ZNSt3__110__function6__funcIZN6bandit2itEPKcNS_8functionIFvvEEERNS2_6detail8listenerERNS_5dequeIPNS8_7contextENS_9allocatorISD_EEEERNS2_8adapters17assertion_adapterERKNS8_10run_policyEEUlvE1_NSE_ISO_EES6_EclEv
   fun:_ZN6bandit8adapters17snowhouse_adapter16adapt_exceptionsENSt3__18functionIFvvEEE
   fun:_ZN6bandit2itEPKcNSt3__18functionIFvvEEERNS_6detail8listenerERNS2_5dequeIPNS6_7contextENS2_9allocatorISB_EEEERNS_8adapters17assertion_adapterERKNS6_10run_policyE
   fun:_ZN6bandit2itEPKcNSt3__18functionIFvvEEE
   fun:_ZNSt3__110__function6__funcIZNK3$_0clEvEUlvE_NS_9allocatorIS3_EEFvvEEclEv
   fun:_ZN6bandit8describeEPKcNSt3__18functionIFvvEEERNS_6detail8listenerERNS2_5dequeIPNS6_7contextENS2_9allocatorISB_EEEEb
   fun:_ZN6bandit8describeEPKcNSt3__18functionIFvvEEE
   fun:_ZNSt3__110__function6__funcI3$_0NS_9allocatorIS2_EEFvvEEclEv
   fun:_ZN6bandit3runERKNS_6detail7optionsERKNSt3__14listINS4_8functionIFvvEEENS4_9allocatorIS8_EEEERNS4_5dequeIPNS0_7contextENS9_ISG_EEEERNS0_8listenerE
   fun:_ZN6bandit3runEiPPc
}

{
   <insert_a_suppression_name_here>
   Memcheck:Value8
   fun:_platform_memcmp
   fun:_ZNK9snowhouse16EqualsConstraintINSt3__112basic_stringIcNS1_11char_traitsIcEENS1_9allocatorIcEEEEEclIS7_EEbRKT_
   fun:_ZN9snowhouse6Assert4ThatINSt3__112basic_stringIcNS2_11char_traitsIcEENS2_9allocatorIcEEEENS_16EqualsConstraintIS8_EEEEvRKT_RKT0_PKci
   fun:_ZNSt3__110__function6__funcIZZNK3$_0clEvENKUlvE_clEvEUlvE1_NS_9allocatorIS4_EEFvvEEclEv
   fun:_ZNSt3__110__function6__funcIZN6bandit2itEPKcNS_8functionIFvvEEERNS2_6detail8listenerERNS_5dequeIPNS8_7contextENS_9allocatorISD_EEEERNS2_8adapters17assertion_adapterERKNS8_10run_policyEEUlvE1_NSE_ISO_EES6_EclEv
   fun:_ZN6bandit8adapters17snowhouse_adapter16adapt_exceptionsENSt3__18functionIFvvEEE
   fun:_ZN6bandit2itEPKcNSt3__18functionIFvvEEERNS_6detail8listenerERNS2_5dequeIPNS6_7contextENS2_9allocatorISB_EEEERNS_8adapters17assertion_adapterERKNS6_10run_policyE
   fun:_ZN6bandit2itEPKcNSt3__18functionIFvvEEE
   fun:_ZNSt3__110__function6__funcIZNK3$_0clEvEUlvE_NS_9allocatorIS3_EEFvvEEclEv
   fun:_ZN6bandit8describeEPKcNSt3__18functionIFvvEEERNS_6detail8listenerERNS2_5dequeIPNS6_7contextENS2_9allocatorISB_EEEEb
   fun:_ZN6bandit8describeEPKcNSt3__18functionIFvvEEE
   fun:_ZNSt3__110__function6__funcI3$_0NS_9allocatorIS2_EEFvvEEclEv
}

{
   <insert_a_suppression_name_here>
   Memcheck:Cond
   fun:_ZN9snowhouse6Assert4ThatINSt3__112basic_stringIcNS2_11char_traitsIcEENS2_9allocatorIcEEEENS_16EqualsConstraintIS8_EEEEvRKT_RKT0_PKci
   fun:_ZNSt3__110__function6__funcIZZZNK3$_0clEvENKUlvE_clEvENKUlvE4_clEvEUlvE0_NS_9allocatorIS5_EEFvvEEclEv
   fun:_ZNSt3__110__function6__funcIZN6bandit2itEPKcNS_8functionIFvvEEERNS2_6detail8listenerERNS_5dequeIPNS8_7contextENS_9allocatorISD_EEEERNS2_8adapters17assertion_adapterERKNS8_10run_policyEEUlvE1_NSE_ISO_EES6_EclEv
   fun:_ZN6bandit8adapters17snowhouse_adapter16adapt_exceptionsENSt3__18functionIFvvEEE
   fun:_ZN6bandit2itEPKcNSt3__18functionIFvvEEERNS_6detail8listenerERNS2_5dequeIPNS6_7contextENS2_9allocatorISB_EEEERNS_8adapters17assertion_adapterERKNS6_10run_policyE
   fun:_ZN6bandit2itEPKcNSt3__18functionIFvvEEE
   fun:_ZNSt3__110__function6__funcIZZNK3$_0clEvENKUlvE_clEvEUlvE4_NS_9allocatorIS4_EEFvvEEclEv
   fun:_ZN6bandit8describeEPKcNSt3__18functionIFvvEEERNS_6detail8listenerERNS2_5dequeIPNS6_7contextENS2_9allocatorISB_EEEEb
   fun:_ZN6bandit8describeEPKcNSt3__18functionIFvvEEE
   fun:_ZNSt3__110__function6__funcIZNK3$_0clEvEUlvE_NS_9allocatorIS3_EEFvvEEclEv
   fun:_ZN6bandit8describeEPKcNSt3__18functionIFvvEEERNS_6detail8listenerERNS2_5dequeIPNS6_7contextENS2_9allocatorISB_EEEEb
   fun:_ZN6bandit8describeEPKcNSt3__18functionIFvvEEE
}

{
   <insert_a_suppression_name_here>
   Memcheck:Value8
   fun:_platform_memcmp
   fun:_ZNK9snowhouse16EqualsConstraintINSt3__112basic_stringIcNS1_11char_traitsIcEENS1_9allocatorIcEEEEEclIS7_EEbRKT_
   fun:_ZN9snowhouse6Assert4ThatINSt3__112basic_stringIcNS2_11char_traitsIcEENS2_9allocatorIcEEEENS_16EqualsConstraintIS8_EEEEvRKT_RKT0_PKci
   fun:_ZNSt3__110__function6__funcIZZZNK3$_0clEvENKUlvE_clEvENKUlvE4_clEvEUlvE0_NS_9allocatorIS5_EEFvvEEclEv
   fun:_ZNSt3__110__function6__funcIZN6bandit2itEPKcNS_8functionIFvvEEERNS2_6detail8listenerERNS_5dequeIPNS8_7contextENS_9allocatorISD_EEEERNS2_8adapters17assertion_adapterERKNS8_10run_policyEEUlvE1_NSE_ISO_EES6_EclEv
   fun:_ZN6bandit8adapters17snowhouse_adapter16adapt_exceptionsENSt3__18functionIFvvEEE
   fun:_ZN6bandit2itEPKcNSt3__18functionIFvvEEERNS_6detail8listenerERNS2_5dequeIPNS6_7contextENS2_9allocatorISB_EEEERNS_8adapters17assertion_adapterERKNS6_10run_policyE
   fun:_ZN6bandit2itEPKcNSt3__18functionIFvvEEE
   fun:_ZNSt3__110__function6__funcIZZNK3$_0clEvENKUlvE_clEvEUlvE4_NS_9allocatorIS4_EEFvvEEclEv
   fun:_ZN6bandit8describeEPKcNSt3__18functionIFvvEEERNS_6detail8listenerERNS2_5dequeIPNS6_7contextENS2_9allocatorISB_EEEEb
   fun:_ZN6bandit8describeEPKcNSt3__18functionIFvvEEE
   fun:_ZNSt3__110__function6__funcIZNK3$_0clEvEUlvE_NS_9allocatorIS3_EEFvvEEclEv
}

{
   <insert_a_suppression_name_here>
   Memcheck:Cond
   fun:_ZNKSt3__112basic_stringIcNS_11char_traitsIcEENS_9allocatorIcEEE7compareEmmPKcm
   fun:_ZNKSt3__112basic_stringIcNS_11char_traitsIcEENS_9allocatorIcEEE7compareEPKc
   fun:_ZN9snowhouse6Assert4ThatIPKcNS_16EqualsConstraintINSt3__112basic_stringIcNS5_11char_traitsIcEENS5_9allocatorIcEEEEEEEEvRKT_RKT0_S3_i
   fun:_ZNSt3__110__function6__funcIZZZZNK3$_0clEvENKUlvE_clEvENKUlNS_12basic_stringIcNS_11char_traitsIcEENS_9allocatorIcEEEEPF9ts_parservEE_clES9_SC_ENKUlvE_clEvEUlvE0_NS7_ISF_EEFvvEEclEv
   fun:_ZNSt3__110__function6__funcIZN6bandit2itEPKcNS_8functionIFvvEEERNS2_6detail8listenerERNS_5dequeIPNS8_7contextENS_9allocatorISD_EEEERNS2_8adapters17assertion_adapterERKNS8_10run_policyEEUlvE1_NSE_ISO_EES6_EclEv
   fun:_ZN6bandit8adapters17snowhouse_adapter16adapt_exceptionsENSt3__18functionIFvvEEE
   fun:_ZN6bandit2itEPKcNSt3__18functionIFvvEEERNS_6detail8listenerERNS2_5dequeIPNS6_7contextENS2_9allocatorISB_EEEERNS_8adapters17assertion_adapterERKNS6_10run_policyE
   fun:_ZN6bandit2itEPKcNSt3__18functionIFvvEEE
   fun:_ZNSt3__110__function6__funcIZZZNK3$_0clEvENKUlvE_clEvENKUlNS_12basic_stringIcNS_11char_traitsIcEENS_9allocatorIcEEEEPF9ts_parservEE_clES9_SC_EUlvE_NS7_ISE_EEFvvEEclEv
   fun:_ZN6bandit8describeEPKcNSt3__18functionIFvvEEERNS_6detail8listenerERNS2_5dequeIPNS6_7contextENS2_9allocatorISB_EEEEb
   fun:_ZN6bandit8describeEPKcNSt3__18functionIFvvEEE
   fun:_ZNSt3__110__function6__funcIZNK3$_0clEvEUlvE_NS_9allocatorIS3_EEFvvEEclEv
}

{
   <insert_a_suppression_name_here>
   Memcheck:Addr1
   fun:_platform_memcmp
   fun:_ZNKSt3__112basic_stringIcNS_11char_traitsIcEENS_9allocatorIcEEE7compareEmmPKcm
   fun:_ZNKSt3__112basic_stringIcNS_11char_traitsIcEENS_9allocatorIcEEE7compareEPKc
   fun:_ZN9snowhouse6Assert4ThatIPKcNS_16EqualsConstraintINSt3__112basic_stringIcNS5_11char_traitsIcEENS5_9allocatorIcEEEEEEEEvRKT_RKT0_S3_i
   fun:_ZNSt3__110__function6__funcIZZZZNK3$_0clEvENKUlvE_clEvENKUlNS_12basic_stringIcNS_11char_traitsIcEENS_9allocatorIcEEEEPF9ts_parservEE_clES9_SC_ENKUlvE_clEvEUlvE0_NS7_ISF_EEFvvEEclEv
   fun:_ZNSt3__110__function6__funcIZN6bandit2itEPKcNS_8functionIFvvEEERNS2_6detail8listenerERNS_5dequeIPNS8_7contextENS_9allocatorISD_EEEERNS2_8adapters17assertion_adapterERKNS8_10run_policyEEUlvE1_NSE_ISO_EES6_EclEv
   fun:_ZN6bandit8adapters17snowhouse_adapter16adapt_exceptionsENSt3__18functionIFvvEEE
   fun:_ZN6bandit2itEPKcNSt3__18functionIFvvEEERNS_6detail8listenerERNS2_5dequeIPNS6_7contextENS2_9allocatorISB_EEEERNS_8adapters17assertion_adapterERKNS6_10run_policyE
   fun:_ZN6bandit2itEPKcNSt3__18functionIFvvEEE
   fun:_ZNSt3__110__function6__funcIZZZNK3$_0clEvENKUlvE_clEvENKUlNS_12basic_stringIcNS_11char_traitsIcEENS_9allocatorIcEEEEPF9ts_parservEE_clES9_SC_EUlvE_NS7_ISE_EEFvvEEclEv
   fun:_ZN6bandit8describeEPKcNSt3__18functionIFvvEEERNS_6detail8listenerERNS2_5dequeIPNS6_7contextENS2_9allocatorISB_EEEEb
   fun:_ZN6bandit8describeEPKcNSt3__18functionIFvvEEE
}

{
   <insert_a_suppression_name_here>
   Memcheck:Value8
   fun:_platform_memcmp
   fun:_ZNKSt3__112basic_stringIcNS_11char_traitsIcEENS_9allocatorIcEEE7compareEmmPKcm
   fun:_ZNKSt3__112basic_stringIcNS_11char_traitsIcEENS_9allocatorIcEEE7compareEPKc
   fun:_ZN9snowhouse6Assert4ThatIPKcNS_16EqualsConstraintINSt3__112basic_stringIcNS5_11char_traitsIcEENS5_9allocatorIcEEEEEEEEvRKT_RKT0_S3_i
   fun:_ZNSt3__110__function6__funcIZZZZNK3$_0clEvENKUlvE_clEvENKUlNS_12basic_stringIcNS_11char_traitsIcEENS_9allocatorIcEEEEPF9ts_parservEE_clES9_SC_ENKUlvE_clEvEUlvE0_NS7_ISF_EEFvvEEclEv
   fun:_ZNSt3__110__function6__funcIZN6bandit2itEPKcNS_8functionIFvvEEERNS2_6detail8listenerERNS_5dequeIPNS8_7contextENS_9allocatorISD_EEEERNS2_8adapters17assertion_adapterERKNS8_10run_policyEEUlvE1_NSE_ISO_EES6_EclEv
   fun:_ZN6bandit8adapters17snowhouse_adapter16adapt_exceptionsENSt3__18functionIFvvEEE
   fun:_ZN6bandit2itEPKcNSt3__18functionIFvvEEERNS_6detail8listenerERNS2_5dequeIPNS6_7contextENS2_9allocatorISB_EEEERNS_8adapters17assertion_adapterERKNS6_10run_policyE
   fun:_ZN6bandit2itEPKcNSt3__18functionIFvvEEE
   fun:_ZNSt3__110__function6__funcIZZZNK3$_0clEvENKUlvE_clEvENKUlNS_12basic_stringIcNS_11char_traitsIcEENS_9allocatorIcEEEEPF9ts_parservEE_clES9_SC_EUlvE_NS7_ISE_EEFvvEEclEv
   fun:_ZN6bandit8describeEPKcNSt3__18functionIFvvEEERNS_6detail8listenerERNS2_5dequeIPNS6_7contextENS2_9allocatorISB_EEEEb
   fun:_ZN6bandit8describeEPKcNSt3__18functionIFvvEEE
}

# Leaks

{
   <insert_a_suppression_name_here>
   Memcheck:Leak
   match-leak-kinds: possible
   fun:malloc_zone_malloc
   fun:_objc_copyClassNamesForImage
   fun:_ZL9protocolsv
   fun:_Z9readClassP10objc_classbb
   fun:gc_init
   fun:_ZL33objc_initializeClassPair_internalP10objc_classPKcS0_S0_
   fun:layout_string_create
   fun:_ZL12realizeClassP10objc_class
   fun:_ZL22copySwiftV1MangledNamePKcb
   fun:_ZL22copySwiftV1MangledNamePKcb
   fun:_ZL22copySwiftV1MangledNamePKcb
   fun:_ZL22copySwiftV1MangledNamePKcb
}
